target datalayout = "e-m:e-p270:32:32-p271:32:32-p272:64:64-i64:64-i128:128-f80:128-n8:16:32:64-S128"
target triple = "x86_64-pc-linux-gnu"

%struct.evp_pkey_method_st = type { i32, i32, ptr, ptr, ptr, ptr, ptr, ptr, ptr, ptr, ptr, ptr, ptr, ptr, ptr, ptr, ptr, ptr, ptr, ptr, ptr, ptr, ptr, ptr, ptr, ptr, ptr, ptr, ptr, ptr, ptr, ptr, ptr }
%struct.evp_pkey_ctx_st = type { i32, ptr, ptr, ptr, ptr, %union.anon, %struct.anon.4, ptr, ptr, ptr, i32, i32, ptr, ptr, ptr, ptr, ptr, i8, ptr }
%union.anon = type { %struct.anon.0 }
%struct.anon.0 = type { ptr, ptr }
%struct.anon.4 = type { ptr, ptr, i64, i8 }
%struct.anon.1 = type { ptr, ptr }
%struct.anon.2 = type { ptr, ptr }
%struct.anon = type { ptr }
%struct.anon.3 = type { ptr, ptr }

@.str = private unnamed_addr constant [34 x i8] c"../openssl/crypto/evp/pmeth_lib.c\00", align 1
@__func__.evp_pkey_ctx_ctrl_int = private unnamed_addr constant [22 x i8] c"evp_pkey_ctx_ctrl_int\00", align 1

; Function Attrs: nounwind uwtable
define i32 @evp_pkey_ctx_state(ptr noundef %0) #0 {
  %2 = alloca i32, align 4
  %3 = alloca ptr, align 8
  store ptr %0, ptr %3, align 8, !tbaa !18
  %4 = load ptr, ptr %3, align 8, !tbaa !18
  %5 = getelementptr inbounds nuw %struct.evp_pkey_ctx_st, ptr %4, i32 0, i32 0
  %6 = load i32, ptr %5, align 8, !tbaa !20
  %7 = icmp eq i32 %6, 0
  br i1 %7, label %8, label %9

8:                                                ; preds = %1
  store i32 0, ptr %2, align 4
  br label %71

9:                                                ; preds = %1
  %10 = load ptr, ptr %3, align 8, !tbaa !18
  %11 = getelementptr inbounds nuw %struct.evp_pkey_ctx_st, ptr %10, i32 0, i32 0
  %12 = load i32, ptr %11, align 8, !tbaa !20
  %13 = and i32 %12, 2048
  %14 = icmp ne i32 %13, 0
  br i1 %14, label %15, label %21

15:                                               ; preds = %9
  %16 = load ptr, ptr %3, align 8, !tbaa !18
  %17 = getelementptr inbounds nuw %struct.evp_pkey_ctx_st, ptr %16, i32 0, i32 5
  %18 = getelementptr inbounds nuw %struct.anon.0, ptr %17, i32 0, i32 1
  %19 = load ptr, ptr %18, align 8, !tbaa !31
  %20 = icmp ne ptr %19, null
  br i1 %20, label %69, label %21

21:                                               ; preds = %15, %9
  %22 = load ptr, ptr %3, align 8, !tbaa !18
  %23 = getelementptr inbounds nuw %struct.evp_pkey_ctx_st, ptr %22, i32 0, i32 0
  %24 = load i32, ptr %23, align 8, !tbaa !20
  %25 = and i32 %24, 49648
  %26 = icmp ne i32 %25, 0
  br i1 %26, label %27, label %33

27:                                               ; preds = %21
  %28 = load ptr, ptr %3, align 8, !tbaa !18
  %29 = getelementptr inbounds nuw %struct.evp_pkey_ctx_st, ptr %28, i32 0, i32 5
  %30 = getelementptr inbounds nuw %struct.anon.1, ptr %29, i32 0, i32 1
  %31 = load ptr, ptr %30, align 8, !tbaa !31
  %32 = icmp ne ptr %31, null
  br i1 %32, label %69, label %33

33:                                               ; preds = %27, %21
  %34 = load ptr, ptr %3, align 8, !tbaa !18
  %35 = getelementptr inbounds nuw %struct.evp_pkey_ctx_st, ptr %34, i32 0, i32 0
  %36 = load i32, ptr %35, align 8, !tbaa !20
  %37 = and i32 %36, 1536
  %38 = icmp ne i32 %37, 0
  br i1 %38, label %39, label %45

39:                                               ; preds = %33
  %40 = load ptr, ptr %3, align 8, !tbaa !18
  %41 = getelementptr inbounds nuw %struct.evp_pkey_ctx_st, ptr %40, i32 0, i32 5
  %42 = getelementptr inbounds nuw %struct.anon.2, ptr %41, i32 0, i32 1
  %43 = load ptr, ptr %42, align 8, !tbaa !31
  %44 = icmp ne ptr %43, null
  br i1 %44, label %69, label %45

45:                                               ; preds = %39, %33
  %46 = load ptr, ptr %3, align 8, !tbaa !18
  %47 = getelementptr inbounds nuw %struct.evp_pkey_ctx_st, ptr %46, i32 0, i32 0
  %48 = load i32, ptr %47, align 8, !tbaa !20
  %49 = and i32 %48, 6
  %50 = icmp ne i32 %49, 0
  br i1 %50, label %51, label %57

51:                                               ; preds = %45
  %52 = load ptr, ptr %3, align 8, !tbaa !18
  %53 = getelementptr inbounds nuw %struct.evp_pkey_ctx_st, ptr %52, i32 0, i32 5
  %54 = getelementptr inbounds nuw %struct.anon, ptr %53, i32 0, i32 0
  %55 = load ptr, ptr %54, align 8, !tbaa !31
  %56 = icmp ne ptr %55, null
  br i1 %56, label %69, label %57

57:                                               ; preds = %51, %45
  %58 = load ptr, ptr %3, align 8, !tbaa !18
  %59 = getelementptr inbounds nuw %struct.evp_pkey_ctx_st, ptr %58, i32 0, i32 0
  %60 = load i32, ptr %59, align 8, !tbaa !20
  %61 = and i32 %60, 12288
  %62 = icmp ne i32 %61, 0
  br i1 %62, label %63, label %70

63:                                               ; preds = %57
  %64 = load ptr, ptr %3, align 8, !tbaa !18
  %65 = getelementptr inbounds nuw %struct.evp_pkey_ctx_st, ptr %64, i32 0, i32 5
  %66 = getelementptr inbounds nuw %struct.anon.3, ptr %65, i32 0, i32 1
  %67 = load ptr, ptr %66, align 8, !tbaa !31
  %68 = icmp ne ptr %67, null
  br i1 %68, label %69, label %70

69:                                               ; preds = %63, %51, %39, %27, %15
  store i32 2, ptr %2, align 4
  br label %71

70:                                               ; preds = %63, %57
  store i32 1, ptr %2, align 4
  br label %71

71:                                               ; preds = %70, %69, %8
  %72 = load i32, ptr %2, align 4
  ret i32 %72
}

; Function Attrs: nounwind uwtable
define internal i32 @evp_pkey_ctx_ctrl_int(ptr noundef %0, i32 noundef %1, i32 noundef %2, i32 noundef %3, i32 noundef %4, ptr noundef %5) #0 {
  %7 = alloca i32, align 4
  %8 = alloca ptr, align 8
  %9 = alloca i32, align 4
  %10 = alloca i32, align 4
  %11 = alloca i32, align 4
  %12 = alloca i32, align 4
  %13 = alloca ptr, align 8
  %14 = alloca i32, align 4
  %15 = alloca i32, align 4
  store ptr %0, ptr %8, align 8, !tbaa !18
  store i32 %1, ptr %9, align 4, !tbaa !3
  store i32 %2, ptr %10, align 4, !tbaa !3
  store i32 %3, ptr %11, align 4, !tbaa !3
  store i32 %4, ptr %12, align 4, !tbaa !3
  store ptr %5, ptr %13, align 8, !tbaa !12
  call void @llvm.lifetime.start.p0(i64 4, ptr %14) #8
  store i32 0, ptr %14, align 4, !tbaa !3
  %16 = load ptr, ptr %8, align 8, !tbaa !18
  %17 = getelementptr inbounds nuw %struct.evp_pkey_ctx_st, ptr %16, i32 0, i32 12
  %18 = load ptr, ptr %17, align 8, !tbaa !55
  %19 = icmp eq ptr %18, null
  br i1 %19, label %27, label %20

20:                                               ; preds = %6
  %21 = load ptr, ptr %8, align 8, !tbaa !18
  %22 = getelementptr inbounds nuw %struct.evp_pkey_ctx_st, ptr %21, i32 0, i32 12
  %23 = load ptr, ptr %22, align 8, !tbaa !55
  %24 = getelementptr inbounds nuw %struct.evp_pkey_method_st, ptr %23, i32 0, i32 32
  %25 = load ptr, ptr %24, align 8, !tbaa !117
  %26 = icmp eq ptr %25, null
  br i1 %26, label %27, label %45

27:                                               ; preds = %20, %6
  %28 = load ptr, ptr %8, align 8, !tbaa !18
  %29 = getelementptr inbounds nuw %struct.evp_pkey_ctx_st, ptr %28, i32 0, i32 0
  %30 = load i32, ptr %29, align 8, !tbaa !20
  %31 = icmp eq i32 %30, 0
  br i1 %31, label %32, label %33

32:                                               ; preds = %27
  call void @ERR_new()
  call void @ERR_set_debug(ptr noundef @.str, i32 noundef 1303, ptr noundef @__func__.evp_pkey_ctx_ctrl_int)
  call void (i32, i32, ptr, ...) @ERR_set_error(i32 noundef 6, i32 noundef 149, ptr noundef null)
  store i32 -1, ptr %7, align 4
  store i32 1, ptr %15, align 4
  br label %98

33:                                               ; preds = %27
  %34 = load i32, ptr %10, align 4, !tbaa !3
  %35 = icmp ne i32 %34, -1
  br i1 %35, label %36, label %44

36:                                               ; preds = %33
  %37 = load ptr, ptr %8, align 8, !tbaa !18
  %38 = getelementptr inbounds nuw %struct.evp_pkey_ctx_st, ptr %37, i32 0, i32 0
  %39 = load i32, ptr %38, align 8, !tbaa !20
  %40 = load i32, ptr %10, align 4, !tbaa !3
  %41 = and i32 %39, %40
  %42 = icmp ne i32 %41, 0
  br i1 %42, label %44, label %43

43:                                               ; preds = %36
  call void @ERR_new()
  call void @ERR_set_debug(ptr noundef @.str, i32 noundef 1308, ptr noundef @__func__.evp_pkey_ctx_ctrl_int)
  call void (i32, i32, ptr, ...) @ERR_set_error(i32 noundef 6, i32 noundef 148, ptr noundef null)
  store i32 -1, ptr %7, align 4
  store i32 1, ptr %15, align 4
  br label %98

44:                                               ; preds = %36, %33
  br label %45

45:                                               ; preds = %44, %20
  %46 = load ptr, ptr %8, align 8, !tbaa !18
  %47 = call i32 @evp_pkey_ctx_state(ptr noundef %46)
  switch i32 %47, label %96 [
    i32 2, label %48
    i32 0, label %56
    i32 1, label %56
  ]

48:                                               ; preds = %45
  %49 = load ptr, ptr %8, align 8, !tbaa !18
  %50 = load i32, ptr %9, align 4, !tbaa !3
  %51 = load i32, ptr %10, align 4, !tbaa !3
  %52 = load i32, ptr %11, align 4, !tbaa !3
  %53 = load i32, ptr %12, align 4, !tbaa !3
  %54 = load ptr, ptr %13, align 8, !tbaa !12
  %55 = call i32 @evp_pkey_ctx_ctrl_to_param(ptr noundef %49, i32 noundef %50, i32 noundef %51, i32 noundef %52, i32 noundef %53, ptr noundef %54)
  store i32 %55, ptr %7, align 4
  store i32 1, ptr %15, align 4
  br label %98

56:                                               ; preds = %45, %45
  %57 = load ptr, ptr %8, align 8, !tbaa !18
  %58 = getelementptr inbounds nuw %struct.evp_pkey_ctx_st, ptr %57, i32 0, i32 12
  %59 = load ptr, ptr %58, align 8, !tbaa !55
  %60 = icmp eq ptr %59, null
  br i1 %60, label %68, label %61

61:                                               ; preds = %56
  %62 = load ptr, ptr %8, align 8, !tbaa !18
  %63 = getelementptr inbounds nuw %struct.evp_pkey_ctx_st, ptr %62, i32 0, i32 12
  %64 = load ptr, ptr %63, align 8, !tbaa !55
  %65 = getelementptr inbounds nuw %struct.evp_pkey_method_st, ptr %64, i32 0, i32 25
  %66 = load ptr, ptr %65, align 8, !tbaa !118
  %67 = icmp eq ptr %66, null
  br i1 %67, label %68, label %69

68:                                               ; preds = %61, %56
  call void @ERR_new()
  call void @ERR_set_debug(ptr noundef @.str, i32 noundef 1319, ptr noundef @__func__.evp_pkey_ctx_ctrl_int)
  call void (i32, i32, ptr, ...) @ERR_set_error(i32 noundef 6, i32 noundef 147, ptr noundef null)
  store i32 -2, ptr %7, align 4
  store i32 1, ptr %15, align 4
  br label %98

69:                                               ; preds = %61
  %70 = load i32, ptr %9, align 4, !tbaa !3
  %71 = icmp ne i32 %70, -1
  br i1 %71, label %72, label %81

72:                                               ; preds = %69
  %73 = load ptr, ptr %8, align 8, !tbaa !18
  %74 = getelementptr inbounds nuw %struct.evp_pkey_ctx_st, ptr %73, i32 0, i32 12
  %75 = load ptr, ptr %74, align 8, !tbaa !55
  %76 = getelementptr inbounds nuw %struct.evp_pkey_method_st, ptr %75, i32 0, i32 0
  %77 = load i32, ptr %76, align 8, !tbaa !10
  %78 = load i32, ptr %9, align 4, !tbaa !3
  %79 = icmp ne i32 %77, %78
  br i1 %79, label %80, label %81

80:                                               ; preds = %72
  store i32 -1, ptr %7, align 4
  store i32 1, ptr %15, align 4
  br label %98

81:                                               ; preds = %72, %69
  %82 = load ptr, ptr %8, align 8, !tbaa !18
  %83 = getelementptr inbounds nuw %struct.evp_pkey_ctx_st, ptr %82, i32 0, i32 12
  %84 = load ptr, ptr %83, align 8, !tbaa !55
  %85 = getelementptr inbounds nuw %struct.evp_pkey_method_st, ptr %84, i32 0, i32 25
  %86 = load ptr, ptr %85, align 8, !tbaa !118
  %87 = load ptr, ptr %8, align 8, !tbaa !18
  %88 = load i32, ptr %11, align 4, !tbaa !3
  %89 = load i32, ptr %12, align 4, !tbaa !3
  %90 = load ptr, ptr %13, align 8, !tbaa !12
  %91 = call i32 %86(ptr noundef %87, i32 noundef %88, i32 noundef %89, ptr noundef %90)
  store i32 %91, ptr %14, align 4, !tbaa !3
  %92 = load i32, ptr %14, align 4, !tbaa !3
  %93 = icmp eq i32 %92, -2
  br i1 %93, label %94, label %95

94:                                               ; preds = %81
  call void @ERR_new()
  call void @ERR_set_debug(ptr noundef @.str, i32 noundef 1328, ptr noundef @__func__.evp_pkey_ctx_ctrl_int)
  call void (i32, i32, ptr, ...) @ERR_set_error(i32 noundef 6, i32 noundef 147, ptr noundef null)
  br label %95

95:                                               ; preds = %94, %81
  br label %96

96:                                               ; preds = %45, %95
  %97 = load i32, ptr %14, align 4, !tbaa !3
  store i32 %97, ptr %7, align 4
  store i32 1, ptr %15, align 4
  br label %98

98:                                               ; preds = %96, %80, %68, %48, %43, %32
  call void @llvm.lifetime.end.p0(i64 4, ptr %14) #8
  %99 = load i32, ptr %7, align 4
  ret i32 %99
}