; Function Attrs: nounwind uwtable
define internal fastcc i32 @evp_pkey_ctx_ctrl_int(ptr noundef %0, i32 noundef %1, i32 noundef %2, i32 noundef %3, i32 noundef %4, ptr noundef %5) unnamed_addr #0 {
  %7 = getelementptr inbounds nuw i8, ptr %0, i64 120
  %8 = load ptr, ptr %7, align 8, !tbaa !46
  %9 = icmp eq ptr %8, null
  br i1 %9, label %14, label %10

10:                                               ; preds = %6
  %11 = getelementptr inbounds nuw i8, ptr %8, i64 248
  %12 = load ptr, ptr %11, align 8, !tbaa !105
  %13 = icmp eq ptr %12, null
  br i1 %13, label %14, label %21

14:                                               ; preds = %10, %6
  %15 = load i32, ptr %0, align 8, !tbaa !15
  %16 = icmp eq i32 %15, 0
  br i1 %16, label %17, label %18

17:                                               ; preds = %14
  tail call void @ERR_new() #10
  tail call void @ERR_set_debug(ptr noundef nonnull @.str, i32 noundef 1303, ptr noundef nonnull @__func__.evp_pkey_ctx_ctrl_int) #10
  tail call void (i32, i32, ptr, ...) @ERR_set_error(i32 noundef 6, i32 noundef 149, ptr noundef null) #10
  br label %62

18:                                               ; preds = %14
  %19 = and i32 %15, %2
  %.not32 = icmp eq i32 %19, 0
  br i1 %.not32, label %20, label %.thread

20:                                               ; preds = %18
  tail call void @ERR_new() #10
  tail call void @ERR_set_debug(ptr noundef nonnull @.str, i32 noundef 1308, ptr noundef nonnull @__func__.evp_pkey_ctx_ctrl_int) #10
  tail call void (i32, i32, ptr, ...) @ERR_set_error(i32 noundef 6, i32 noundef 148, ptr noundef null) #10
  br label %62

21:                                               ; preds = %10
  %.pre = load i32, ptr %0, align 8, !tbaa !15
  %22 = icmp eq i32 %.pre, 0
  br i1 %22, label %.thread38, label %.thread

.thread:                                          ; preds = %18, %21
  %23 = phi i32 [ %.pre, %21 ], [ %15, %18 ]
  %24 = and i32 %23, 2048
  %.not.i = icmp eq i32 %24, 0
  br i1 %.not.i, label %28, label %25

25:                                               ; preds = %.thread
  %26 = getelementptr inbounds nuw i8, ptr %0, i64 48
  %27 = load ptr, ptr %26, align 8, !tbaa !26
  %.not12.i = icmp eq ptr %27, null
  br i1 %.not12.i, label %28, label %48

28:                                               ; preds = %25, %.thread
  %29 = and i32 %23, 49648
  %.not13.i = icmp eq i32 %29, 0
  br i1 %.not13.i, label %33, label %30

30:                                               ; preds = %28
  %31 = getelementptr inbounds nuw i8, ptr %0, i64 48
  %32 = load ptr, ptr %31, align 8, !tbaa !26
  %.not14.i = icmp eq ptr %32, null
  br i1 %.not14.i, label %33, label %48

33:                                               ; preds = %30, %28
  %34 = and i32 %23, 1536
  %.not15.i = icmp eq i32 %34, 0
  br i1 %.not15.i, label %38, label %35

35:                                               ; preds = %33
  %36 = getelementptr inbounds nuw i8, ptr %0, i64 48
  %37 = load ptr, ptr %36, align 8, !tbaa !26
  %.not16.i = icmp eq ptr %37, null
  br i1 %.not16.i, label %38, label %48

38:                                               ; preds = %35, %33
  %39 = and i32 %23, 6
  %.not17.i = icmp eq i32 %39, 0
  br i1 %.not17.i, label %43, label %40

40:                                               ; preds = %38
  %41 = getelementptr inbounds nuw i8, ptr %0, i64 40
  %42 = load ptr, ptr %41, align 8, !tbaa !26
  %.not18.i = icmp eq ptr %42, null
  br i1 %.not18.i, label %43, label %48

43:                                               ; preds = %40, %38
  %44 = and i32 %23, 12288
  %.not19.i = icmp eq i32 %44, 0
  br i1 %.not19.i, label %50, label %45

45:                                               ; preds = %43
  %46 = getelementptr inbounds nuw i8, ptr %0, i64 48
  %47 = load ptr, ptr %46, align 8, !tbaa !26
  %.not20.i = icmp eq ptr %47, null
  br i1 %.not20.i, label %50, label %48

48:                                               ; preds = %45, %40, %35, %30, %25
  %49 = tail call i32 @evp_pkey_ctx_ctrl_to_param(ptr noundef nonnull %0, i32 noundef %1, i32 noundef %2, i32 noundef %3, i32 noundef %4, ptr noundef %5) #10
  br label %62

50:                                               ; preds = %43, %45
  br i1 %9, label %54, label %.thread38

.thread38:                                        ; preds = %21, %50
  %51 = getelementptr inbounds nuw i8, ptr %8, i64 192
  %52 = load ptr, ptr %51, align 8, !tbaa !106
  %53 = icmp eq ptr %52, null
  br i1 %53, label %54, label %55

54:                                               ; preds = %.thread38, %50
  tail call void @ERR_new() #10
  tail call void @ERR_set_debug(ptr noundef nonnull @.str, i32 noundef 1319, ptr noundef nonnull @__func__.evp_pkey_ctx_ctrl_int) #10
  tail call void (i32, i32, ptr, ...) @ERR_set_error(i32 noundef 6, i32 noundef 147, ptr noundef null) #10
  br label %62

55:                                               ; preds = %.thread38
  %.not33 = icmp eq i32 %1, -1
  br i1 %.not33, label %58, label %56

56:                                               ; preds = %55
  %57 = load i32, ptr %8, align 8, !tbaa !8
  %.not34 = icmp eq i32 %57, %1
  br i1 %.not34, label %58, label %62

58:                                               ; preds = %56, %55
  %59 = tail call i32 %52(ptr noundef nonnull %0, i32 noundef %3, i32 noundef %4, ptr noundef %5) #10
  %60 = icmp eq i32 %59, -2
  br i1 %60, label %61, label %62

61:                                               ; preds = %58
  tail call void @ERR_new() #10
  tail call void @ERR_set_debug(ptr noundef nonnull @.str, i32 noundef 1328, ptr noundef nonnull @__func__.evp_pkey_ctx_ctrl_int) #10
  tail call void (i32, i32, ptr, ...) @ERR_set_error(i32 noundef 6, i32 noundef 147, ptr noundef null) #10
  br label %62

62:                                               ; preds = %61, %58, %56, %54, %48, %20, %17
  %.025 = phi i32 [ -1, %17 ], [ -2, %54 ], [ %49, %48 ], [ -1, %20 ], [ -1, %56 ], [ -2, %61 ], [ %59, %58 ]
  ret i32 %.025
}